target datalayout = "e-m:e-p270:32:32-p271:32:32-p272:64:64-i64:64-i128:128-f80:128-n8:16:32:64-S128"
target triple = "x86_64-pc-linux-gnu"

; Function Attrs: inlinehint nounwind sspstrong willreturn memory(none) uwtable
define internal zeroext i1 @RB_FIXNUM_P(i64 noundef %0) #4 {
  %2 = alloca i64, align 8
  store i64 %0, ptr %2, align 8, !tbaa !35
  %3 = load i64, ptr %2, align 8, !tbaa !35
  %4 = and i64 %3, 1
  %5 = icmp ne i64 %4, 0
  ret i1 %5
}

; Function Attrs: inlinehint nounwind sspstrong uwtable
define internal i32 @rb_num2int_inline(i64 noundef %0) #1 {
  %2 = alloca i64, align 8
  %3 = alloca i64, align 8
  store i64 %0, ptr %2, align 8, !tbaa !35
  call void @llvm.lifetime.start.p0(i64 8, ptr %3) #27
  %4 = load i64, ptr %2, align 8, !tbaa !35
  %5 = call zeroext i1 @RB_FIXNUM_P(i64 noundef %4) #28
  br i1 %5, label %6, label %9

6:                                                ; preds = %1
  %7 = load i64, ptr %2, align 8, !tbaa !35
  %8 = call i64 @rb_fix2int(i64 noundef %7)
  store i64 %8, ptr %3, align 8, !tbaa !35
  br label %12

9:                                                ; preds = %1
  %10 = load i64, ptr %2, align 8, !tbaa !35
  %11 = call i64 @rb_num2int(i64 noundef %10)
  store i64 %11, ptr %3, align 8, !tbaa !35
  br label %12

12:                                               ; preds = %9, %6
  %13 = load i64, ptr %3, align 8, !tbaa !35
  %14 = trunc i64 %13 to i32
  call void @llvm.lifetime.end.p0(i64 8, ptr %3) #27
  ret i32 %14
}

; Function Attrs: nounwind sspstrong uwtable
define internal i32 @exit_status_code(i64 noundef %0) #0 {
  %2 = alloca i64, align 8
  %3 = alloca i32, align 4
  store i64 %0, ptr %2, align 8, !tbaa !35
  call void @llvm.lifetime.start.p0(i64 4, ptr %3) #27
  %4 = load i64, ptr %2, align 8, !tbaa !35
  switch i64 %4, label %7 [
    i64 20, label %5
    i64 0, label %6
  ]

5:                                                ; preds = %1
  store i32 0, ptr %3, align 4, !tbaa !34
  br label %10

6:                                                ; preds = %1
  store i32 1, ptr %3, align 4, !tbaa !34
  br label %10

7:                                                ; preds = %1
  %8 = load i64, ptr %2, align 8, !tbaa !35
  %9 = call i32 @rb_num2int_inline(i64 noundef %8)
  store i32 %9, ptr %3, align 4, !tbaa !34
  br label %10

10:                                               ; preds = %7, %6, %5
  %11 = load i32, ptr %3, align 4, !tbaa !34
  call void @llvm.lifetime.end.p0(i64 4, ptr %3) #27
  ret i32 %11
}

; Function Attrs: inlinehint nounwind sspstrong uwtable
define internal i32 @rb_check_arity(i32 noundef %0, i32 noundef %1, i32 noundef %2) #1 {
  %4 = alloca i32, align 4
  %5 = alloca i32, align 4
  %6 = alloca i32, align 4
  store i32 %0, ptr %4, align 4, !tbaa !34
  store i32 %1, ptr %5, align 4, !tbaa !34
  store i32 %2, ptr %6, align 4, !tbaa !34
  %7 = load i32, ptr %4, align 4, !tbaa !34
  %8 = load i32, ptr %5, align 4, !tbaa !34
  %9 = icmp slt i32 %7, %8
  br i1 %9, label %17, label %10

10:                                               ; preds = %3
  %11 = load i32, ptr %6, align 4, !tbaa !34
  %12 = icmp ne i32 %11, -1
  br i1 %12, label %13, label %21

13:                                               ; preds = %10
  %14 = load i32, ptr %4, align 4, !tbaa !34
  %15 = load i32, ptr %6, align 4, !tbaa !34
  %16 = icmp sgt i32 %14, %15
  br i1 %16, label %17, label %21

17:                                               ; preds = %13, %3
  %18 = load i32, ptr %4, align 4, !tbaa !34
  %19 = load i32, ptr %5, align 4, !tbaa !34
  %20 = load i32, ptr %6, align 4, !tbaa !34
  call void @rb_error_arity(i32 noundef %18, i32 noundef %19, i32 noundef %20) #30
  unreachable

21:                                               ; preds = %13, %10
  %22 = load i32, ptr %4, align 4, !tbaa !34
  ret i32 %22
}

; Function Attrs: noreturn nounwind sspstrong uwtable
define internal i64 @rb_f_exit_bang(i32 noundef %0, ptr noundef %1, i64 noundef %2) #7 {
  %4 = alloca i32, align 4
  %5 = alloca ptr, align 8
  %6 = alloca i64, align 8
  %7 = alloca i32, align 4
  store i32 %0, ptr %4, align 4, !tbaa !34
  store ptr %1, ptr %5, align 8, !tbaa !70
  store i64 %2, ptr %6, align 8, !tbaa !35
  call void @llvm.lifetime.start.p0(i64 4, ptr %7) #27
  %8 = load i32, ptr %4, align 4, !tbaa !34
  %9 = call i32 @rb_check_arity(i32 noundef %8, i32 noundef 0, i32 noundef 1)
  %10 = icmp eq i32 %9, 1
  br i1 %10, label %11, label %16

11:                                               ; preds = %3
  %12 = load ptr, ptr %5, align 8, !tbaa !70
  %13 = getelementptr i64, ptr %12, i64 0
  %14 = load i64, ptr %13, align 8, !tbaa !35
  %15 = call i32 @exit_status_code(i64 noundef %14)
  store i32 %15, ptr %7, align 4, !tbaa !34
  br label %17

16:                                               ; preds = %3
  store i32 1, ptr %7, align 4, !tbaa !34
  br label %17

17:                                               ; preds = %16, %11
  %18 = load i32, ptr %7, align 4, !tbaa !34
  call void @_exit(i32 noundef %18) #30
  unreachable
}