; Function Attrs: noreturn nounwind sspstrong uwtable
define internal noundef i64 @rb_f_exit_bang(i32 noundef %0, ptr noundef readonly captures(none) %1, i64 %2) #7 {
  %or.cond.not = icmp ult i32 %0, 2
  br i1 %or.cond.not, label %rb_check_arity.exit, label %4

4:                                                ; preds = %3
  tail call void @rb_error_arity(i32 noundef %0, i32 noundef 0, i32 noundef 1) #29
  unreachable

rb_check_arity.exit:                              ; preds = %3
  %5 = icmp eq i32 %0, 1
  br i1 %5, label %6, label %exit_status_code.exit

6:                                                ; preds = %rb_check_arity.exit
  %7 = load i64, ptr %1, align 8, !tbaa !43
  switch i64 %7, label %9 [
    i64 20, label %exit_status_code.exit
    i64 0, label %8
  ]

8:                                                ; preds = %6
  br label %exit_status_code.exit

9:                                                ; preds = %6
  %10 = and i64 %7, 1
  %.not.i.i = icmp eq i64 %10, 0
  br i1 %.not.i.i, label %13, label %11

11:                                               ; preds = %9
  %12 = tail call i64 @rb_fix2int(i64 noundef %7) #27
  br label %rb_num2int_inline.exit.i

13:                                               ; preds = %9
  %14 = tail call i64 @rb_num2int(i64 noundef %7) #27
  br label %rb_num2int_inline.exit.i

rb_num2int_inline.exit.i:                         ; preds = %13, %11
  %.0.i.i = phi i64 [ %12, %11 ], [ %14, %13 ]
  %15 = trunc i64 %.0.i.i to i32
  br label %exit_status_code.exit

exit_status_code.exit:                            ; preds = %rb_num2int_inline.exit.i, %8, %6, %rb_check_arity.exit
  %.0 = phi i32 [ 1, %rb_check_arity.exit ], [ %15, %rb_num2int_inline.exit.i ], [ 1, %8 ], [ 0, %6 ]
  tail call void @_exit(i32 noundef %.0) #29
  unreachable
}